target datalayout = "e-m:e-p270:32:32-p271:32:32-p272:64:64-i64:64-i128:128-f80:128-n8:16:32:64-S128"
target triple = "x86_64-pc-linux-gnu"

%"class.LIEF::MachO::DyldChainedFixups" = type { %"class.LIEF::MachO::LoadCommand", i32, i32, %"class.tcb::span", i32, i32, i32, i32, i32, i32, i32, %"class.std::vector.0", %"class.std::vector.5", %"class.std::vector.10" }
%"class.LIEF::MachO::LoadCommand" = type { %"class.LIEF::Object", %"class.std::vector", i64, i32, i64 }
%"class.LIEF::Object" = type { ptr }
%"class.std::vector" = type { %"struct.std::_Vector_base" }
%"struct.std::_Vector_base" = type { %"struct.std::_Vector_base<unsigned char, std::allocator<unsigned char>>::_Vector_impl" }
%"struct.std::_Vector_base<unsigned char, std::allocator<unsigned char>>::_Vector_impl" = type { %"struct.std::_Vector_base<unsigned char, std::allocator<unsigned char>>::_Vector_impl_data" }
%"struct.std::_Vector_base<unsigned char, std::allocator<unsigned char>>::_Vector_impl_data" = type { ptr, ptr, ptr }
%"class.tcb::span" = type { %"struct.tcb::detail::span_storage" }
%"struct.tcb::detail::span_storage" = type { ptr, i64 }
%"class.std::vector.0" = type { %"struct.std::_Vector_base.1" }
%"struct.std::_Vector_base.1" = type { %"struct.std::_Vector_base<LIEF::MachO::DyldChainedFixups::chained_starts_in_segment, std::allocator<LIEF::MachO::DyldChainedFixups::chained_starts_in_segment>>::_Vector_impl" }
%"struct.std::_Vector_base<LIEF::MachO::DyldChainedFixups::chained_starts_in_segment, std::allocator<LIEF::MachO::DyldChainedFixups::chained_starts_in_segment>>::_Vector_impl" = type { %"struct.std::_Vector_base<LIEF::MachO::DyldChainedFixups::chained_starts_in_segment, std::allocator<LIEF::MachO::DyldChainedFixups::chained_starts_in_segment>>::_Vector_impl_data" }
%"struct.std::_Vector_base<LIEF::MachO::DyldChainedFixups::chained_starts_in_segment, std::allocator<LIEF::MachO::DyldChainedFixups::chained_starts_in_segment>>::_Vector_impl_data" = type { ptr, ptr, ptr }
%"class.std::vector.5" = type { %"struct.std::_Vector_base.6" }
%"struct.std::_Vector_base.6" = type { %"struct.std::_Vector_base<std::unique_ptr<LIEF::MachO::ChainedBindingInfoList>, std::allocator<std::unique_ptr<LIEF::MachO::ChainedBindingInfoList>>>::_Vector_impl" }
%"struct.std::_Vector_base<std::unique_ptr<LIEF::MachO::ChainedBindingInfoList>, std::allocator<std::unique_ptr<LIEF::MachO::ChainedBindingInfoList>>>::_Vector_impl" = type { %"struct.std::_Vector_base<std::unique_ptr<LIEF::MachO::ChainedBindingInfoList>, std::allocator<std::unique_ptr<LIEF::MachO::ChainedBindingInfoList>>>::_Vector_impl_data" }
%"struct.std::_Vector_base<std::unique_ptr<LIEF::MachO::ChainedBindingInfoList>, std::allocator<std::unique_ptr<LIEF::MachO::ChainedBindingInfoList>>>::_Vector_impl_data" = type { ptr, ptr, ptr }
%"class.std::vector.10" = type { %"struct.std::_Vector_base.11" }
%"struct.std::_Vector_base.11" = type { %"struct.std::_Vector_base<std::unique_ptr<LIEF::MachO::ChainedBindingInfo>, std::allocator<std::unique_ptr<LIEF::MachO::ChainedBindingInfo>>>::_Vector_impl" }
%"struct.std::_Vector_base<std::unique_ptr<LIEF::MachO::ChainedBindingInfo>, std::allocator<std::unique_ptr<LIEF::MachO::ChainedBindingInfo>>>::_Vector_impl" = type { %"struct.std::_Vector_base<std::unique_ptr<LIEF::MachO::ChainedBindingInfo>, std::allocator<std::unique_ptr<LIEF::MachO::ChainedBindingInfo>>>::_Vector_impl_data" }
%"struct.std::_Vector_base<std::unique_ptr<LIEF::MachO::ChainedBindingInfo>, std::allocator<std::unique_ptr<LIEF::MachO::ChainedBindingInfo>>>::_Vector_impl_data" = type { ptr, ptr, ptr }

; Function Attrs: mustprogress nounwind uwtable
define linkonce_odr hidden void @_ZNSt15__new_allocatorISt10unique_ptrIN4LIEF5MachO18ChainedBindingInfoESt14default_deleteIS3_EEEC2Ev(ptr noundef nonnull align 1 dereferenceable(1) %0) unnamed_addr #1 comdat align 2 {
  %2 = alloca ptr, align 8
  store ptr %0, ptr %2, align 8
  ret void
}

; Function Attrs: mustprogress nounwind uwtable
define linkonce_odr hidden void @_ZNSt15__new_allocatorISt10unique_ptrIN4LIEF5MachO22ChainedBindingInfoListESt14default_deleteIS3_EEEC2Ev(ptr noundef nonnull align 1 dereferenceable(1) %0) unnamed_addr #1 comdat align 2 {
  %2 = alloca ptr, align 8
  store ptr %0, ptr %2, align 8
  ret void
}

; Function Attrs: mustprogress nounwind uwtable
define linkonce_odr hidden void @_ZNSt15__new_allocatorIN4LIEF5MachO17DyldChainedFixups25chained_starts_in_segmentEEC2Ev(ptr noundef nonnull align 1 dereferenceable(1) %0) unnamed_addr #1 comdat align 2 {
  %2 = alloca ptr, align 8
  store ptr %0, ptr %2, align 8
  ret void
}

; Function Attrs: mustprogress nounwind uwtable
define linkonce_odr hidden void @_ZNSt12_Vector_baseISt10unique_ptrIN4LIEF5MachO18ChainedBindingInfoESt14default_deleteIS3_EESaIS6_EE17_Vector_impl_dataC2Ev(ptr noundef nonnull align 8 dereferenceable(24) %0) unnamed_addr #1 comdat align 2 {
  %2 = alloca ptr, align 8
  store ptr %0, ptr %2, align 8
  %3 = load ptr, ptr %2, align 8
  %4 = getelementptr inbounds %"struct.std::_Vector_base<std::unique_ptr<LIEF::MachO::ChainedBindingInfo>, std::allocator<std::unique_ptr<LIEF::MachO::ChainedBindingInfo>>>::_Vector_impl_data", ptr %3, i32 0, i32 0
  store ptr null, ptr %4, align 8
  %5 = getelementptr inbounds %"struct.std::_Vector_base<std::unique_ptr<LIEF::MachO::ChainedBindingInfo>, std::allocator<std::unique_ptr<LIEF::MachO::ChainedBindingInfo>>>::_Vector_impl_data", ptr %3, i32 0, i32 1
  store ptr null, ptr %5, align 8
  %6 = getelementptr inbounds %"struct.std::_Vector_base<std::unique_ptr<LIEF::MachO::ChainedBindingInfo>, std::allocator<std::unique_ptr<LIEF::MachO::ChainedBindingInfo>>>::_Vector_impl_data", ptr %3, i32 0, i32 2
  store ptr null, ptr %6, align 8
  ret void
}

; Function Attrs: mustprogress nounwind uwtable
define linkonce_odr hidden void @_ZNSaISt10unique_ptrIN4LIEF5MachO18ChainedBindingInfoESt14default_deleteIS2_EEEC2Ev(ptr noundef nonnull align 1 dereferenceable(1) %0) unnamed_addr #1 comdat align 2 {
  %2 = alloca ptr, align 8
  store ptr %0, ptr %2, align 8
  %3 = load ptr, ptr %2, align 8
  call void @_ZNSt15__new_allocatorISt10unique_ptrIN4LIEF5MachO18ChainedBindingInfoESt14default_deleteIS3_EEEC2Ev(ptr noundef nonnull align 1 dereferenceable(1) %3) #16
  ret void
}

; Function Attrs: mustprogress nounwind uwtable
define linkonce_odr hidden void @_ZNSt12_Vector_baseISt10unique_ptrIN4LIEF5MachO22ChainedBindingInfoListESt14default_deleteIS3_EESaIS6_EE17_Vector_impl_dataC2Ev(ptr noundef nonnull align 8 dereferenceable(24) %0) unnamed_addr #1 comdat align 2 {
  %2 = alloca ptr, align 8
  store ptr %0, ptr %2, align 8
  %3 = load ptr, ptr %2, align 8
  %4 = getelementptr inbounds %"struct.std::_Vector_base<std::unique_ptr<LIEF::MachO::ChainedBindingInfoList>, std::allocator<std::unique_ptr<LIEF::MachO::ChainedBindingInfoList>>>::_Vector_impl_data", ptr %3, i32 0, i32 0
  store ptr null, ptr %4, align 8
  %5 = getelementptr inbounds %"struct.std::_Vector_base<std::unique_ptr<LIEF::MachO::ChainedBindingInfoList>, std::allocator<std::unique_ptr<LIEF::MachO::ChainedBindingInfoList>>>::_Vector_impl_data", ptr %3, i32 0, i32 1
  store ptr null, ptr %5, align 8
  %6 = getelementptr inbounds %"struct.std::_Vector_base<std::unique_ptr<LIEF::MachO::ChainedBindingInfoList>, std::allocator<std::unique_ptr<LIEF::MachO::ChainedBindingInfoList>>>::_Vector_impl_data", ptr %3, i32 0, i32 2
  store ptr null, ptr %6, align 8
  ret void
}

; Function Attrs: mustprogress nounwind uwtable
define linkonce_odr hidden void @_ZNSaISt10unique_ptrIN4LIEF5MachO22ChainedBindingInfoListESt14default_deleteIS2_EEEC2Ev(ptr noundef nonnull align 1 dereferenceable(1) %0) unnamed_addr #1 comdat align 2 {
  %2 = alloca ptr, align 8
  store ptr %0, ptr %2, align 8
  %3 = load ptr, ptr %2, align 8
  call void @_ZNSt15__new_allocatorISt10unique_ptrIN4LIEF5MachO22ChainedBindingInfoListESt14default_deleteIS3_EEEC2Ev(ptr noundef nonnull align 1 dereferenceable(1) %3) #16
  ret void
}

; Function Attrs: mustprogress nounwind uwtable
define linkonce_odr hidden void @_ZNSt12_Vector_baseIN4LIEF5MachO17DyldChainedFixups25chained_starts_in_segmentESaIS3_EE17_Vector_impl_dataC2Ev(ptr noundef nonnull align 8 dereferenceable(24) %0) unnamed_addr #1 comdat align 2 {
  %2 = alloca ptr, align 8
  store ptr %0, ptr %2, align 8
  %3 = load ptr, ptr %2, align 8
  %4 = getelementptr inbounds %"struct.std::_Vector_base<LIEF::MachO::DyldChainedFixups::chained_starts_in_segment, std::allocator<LIEF::MachO::DyldChainedFixups::chained_starts_in_segment>>::_Vector_impl_data", ptr %3, i32 0, i32 0
  store ptr null, ptr %4, align 8
  %5 = getelementptr inbounds %"struct.std::_Vector_base<LIEF::MachO::DyldChainedFixups::chained_starts_in_segment, std::allocator<LIEF::MachO::DyldChainedFixups::chained_starts_in_segment>>::_Vector_impl_data", ptr %3, i32 0, i32 1
  store ptr null, ptr %5, align 8
  %6 = getelementptr inbounds %"struct.std::_Vector_base<LIEF::MachO::DyldChainedFixups::chained_starts_in_segment, std::allocator<LIEF::MachO::DyldChainedFixups::chained_starts_in_segment>>::_Vector_impl_data", ptr %3, i32 0, i32 2
  store ptr null, ptr %6, align 8
  ret void
}

; Function Attrs: mustprogress nounwind uwtable
define linkonce_odr hidden void @_ZNSaIN4LIEF5MachO17DyldChainedFixups25chained_starts_in_segmentEEC2Ev(ptr noundef nonnull align 1 dereferenceable(1) %0) unnamed_addr #1 comdat align 2 {
  %2 = alloca ptr, align 8
  store ptr %0, ptr %2, align 8
  %3 = load ptr, ptr %2, align 8
  call void @_ZNSt15__new_allocatorIN4LIEF5MachO17DyldChainedFixups25chained_starts_in_segmentEEC2Ev(ptr noundef nonnull align 1 dereferenceable(1) %3) #16
  ret void
}

; Function Attrs: mustprogress nounwind uwtable
define linkonce_odr hidden void @_ZNSt12_Vector_baseISt10unique_ptrIN4LIEF5MachO18ChainedBindingInfoESt14default_deleteIS3_EESaIS6_EE12_Vector_implC2Ev(ptr noundef nonnull align 8 dereferenceable(24) %0) unnamed_addr #1 comdat align 2 {
  %2 = alloca ptr, align 8
  store ptr %0, ptr %2, align 8
  %3 = load ptr, ptr %2, align 8
  call void @_ZNSaISt10unique_ptrIN4LIEF5MachO18ChainedBindingInfoESt14default_deleteIS2_EEEC2Ev(ptr noundef nonnull align 1 dereferenceable(1) %3) #16
  call void @_ZNSt12_Vector_baseISt10unique_ptrIN4LIEF5MachO18ChainedBindingInfoESt14default_deleteIS3_EESaIS6_EE17_Vector_impl_dataC2Ev(ptr noundef nonnull align 8 dereferenceable(24) %3) #16
  ret void
}

; Function Attrs: mustprogress nounwind uwtable
define linkonce_odr hidden void @_ZNSt12_Vector_baseISt10unique_ptrIN4LIEF5MachO22ChainedBindingInfoListESt14default_deleteIS3_EESaIS6_EE12_Vector_implC2Ev(ptr noundef nonnull align 8 dereferenceable(24) %0) unnamed_addr #1 comdat align 2 {
  %2 = alloca ptr, align 8
  store ptr %0, ptr %2, align 8
  %3 = load ptr, ptr %2, align 8
  call void @_ZNSaISt10unique_ptrIN4LIEF5MachO22ChainedBindingInfoListESt14default_deleteIS2_EEEC2Ev(ptr noundef nonnull align 1 dereferenceable(1) %3) #16
  call void @_ZNSt12_Vector_baseISt10unique_ptrIN4LIEF5MachO22ChainedBindingInfoListESt14default_deleteIS3_EESaIS6_EE17_Vector_impl_dataC2Ev(ptr noundef nonnull align 8 dereferenceable(24) %3) #16
  ret void
}

; Function Attrs: mustprogress nounwind uwtable
define linkonce_odr hidden void @_ZNSt12_Vector_baseIN4LIEF5MachO17DyldChainedFixups25chained_starts_in_segmentESaIS3_EE12_Vector_implC2Ev(ptr noundef nonnull align 8 dereferenceable(24) %0) unnamed_addr #1 comdat align 2 {
  %2 = alloca ptr, align 8
  store ptr %0, ptr %2, align 8
  %3 = load ptr, ptr %2, align 8
  call void @_ZNSaIN4LIEF5MachO17DyldChainedFixups25chained_starts_in_segmentEEC2Ev(ptr noundef nonnull align 1 dereferenceable(1) %3) #16
  call void @_ZNSt12_Vector_baseIN4LIEF5MachO17DyldChainedFixups25chained_starts_in_segmentESaIS3_EE17_Vector_impl_dataC2Ev(ptr noundef nonnull align 8 dereferenceable(24) %3) #16
  ret void
}

; Function Attrs: mustprogress nounwind uwtable
define linkonce_odr hidden void @_ZNSt12_Vector_baseISt10unique_ptrIN4LIEF5MachO18ChainedBindingInfoESt14default_deleteIS3_EESaIS6_EEC2Ev(ptr noundef nonnull align 8 dereferenceable(24) %0) unnamed_addr #1 comdat align 2 {
  %2 = alloca ptr, align 8
  store ptr %0, ptr %2, align 8
  %3 = load ptr, ptr %2, align 8
  %4 = getelementptr inbounds %"struct.std::_Vector_base.11", ptr %3, i32 0, i32 0
  call void @_ZNSt12_Vector_baseISt10unique_ptrIN4LIEF5MachO18ChainedBindingInfoESt14default_deleteIS3_EESaIS6_EE12_Vector_implC2Ev(ptr noundef nonnull align 8 dereferenceable(24) %4) #16
  ret void
}

; Function Attrs: mustprogress nounwind uwtable
define linkonce_odr hidden void @_ZNSt12_Vector_baseISt10unique_ptrIN4LIEF5MachO22ChainedBindingInfoListESt14default_deleteIS3_EESaIS6_EEC2Ev(ptr noundef nonnull align 8 dereferenceable(24) %0) unnamed_addr #1 comdat align 2 {
  %2 = alloca ptr, align 8
  store ptr %0, ptr %2, align 8
  %3 = load ptr, ptr %2, align 8
  %4 = getelementptr inbounds %"struct.std::_Vector_base.6", ptr %3, i32 0, i32 0
  call void @_ZNSt12_Vector_baseISt10unique_ptrIN4LIEF5MachO22ChainedBindingInfoListESt14default_deleteIS3_EESaIS6_EE12_Vector_implC2Ev(ptr noundef nonnull align 8 dereferenceable(24) %4) #16
  ret void
}

; Function Attrs: mustprogress nounwind uwtable
define linkonce_odr hidden void @_ZNSt12_Vector_baseIN4LIEF5MachO17DyldChainedFixups25chained_starts_in_segmentESaIS3_EEC2Ev(ptr noundef nonnull align 8 dereferenceable(24) %0) unnamed_addr #1 comdat align 2 {
  %2 = alloca ptr, align 8
  store ptr %0, ptr %2, align 8
  %3 = load ptr, ptr %2, align 8
  %4 = getelementptr inbounds %"struct.std::_Vector_base.1", ptr %3, i32 0, i32 0
  call void @_ZNSt12_Vector_baseIN4LIEF5MachO17DyldChainedFixups25chained_starts_in_segmentESaIS3_EE12_Vector_implC2Ev(ptr noundef nonnull align 8 dereferenceable(24) %4) #16
  ret void
}

; Function Attrs: mustprogress nounwind uwtable
define linkonce_odr hidden void @_ZN3tcb6detail12span_storageIhLm18446744073709551615EEC2Ev(ptr noundef nonnull align 8 dereferenceable(16) %0) unnamed_addr #1 comdat align 2 {
  %2 = alloca ptr, align 8
  store ptr %0, ptr %2, align 8
  %3 = load ptr, ptr %2, align 8
  %4 = getelementptr inbounds %"struct.tcb::detail::span_storage", ptr %3, i32 0, i32 0
  store ptr null, ptr %4, align 8
  %5 = getelementptr inbounds %"struct.tcb::detail::span_storage", ptr %3, i32 0, i32 1
  store i64 0, ptr %5, align 8
  ret void
}

; Function Attrs: mustprogress nounwind uwtable
define linkonce_odr hidden void @_ZNSt6vectorISt10unique_ptrIN4LIEF5MachO18ChainedBindingInfoESt14default_deleteIS3_EESaIS6_EEC2Ev(ptr noundef nonnull align 8 dereferenceable(24) %0) unnamed_addr #1 comdat align 2 {
  %2 = alloca ptr, align 8
  store ptr %0, ptr %2, align 8
  %3 = load ptr, ptr %2, align 8
  call void @_ZNSt12_Vector_baseISt10unique_ptrIN4LIEF5MachO18ChainedBindingInfoESt14default_deleteIS3_EESaIS6_EEC2Ev(ptr noundef nonnull align 8 dereferenceable(24) %3) #16
  ret void
}

; Function Attrs: mustprogress nounwind uwtable
define linkonce_odr hidden void @_ZNSt6vectorISt10unique_ptrIN4LIEF5MachO22ChainedBindingInfoListESt14default_deleteIS3_EESaIS6_EEC2Ev(ptr noundef nonnull align 8 dereferenceable(24) %0) unnamed_addr #1 comdat align 2 {
  %2 = alloca ptr, align 8
  store ptr %0, ptr %2, align 8
  %3 = load ptr, ptr %2, align 8
  call void @_ZNSt12_Vector_baseISt10unique_ptrIN4LIEF5MachO22ChainedBindingInfoListESt14default_deleteIS3_EESaIS6_EEC2Ev(ptr noundef nonnull align 8 dereferenceable(24) %3) #16
  ret void
}

; Function Attrs: mustprogress nounwind uwtable
define linkonce_odr hidden void @_ZNSt6vectorIN4LIEF5MachO17DyldChainedFixups25chained_starts_in_segmentESaIS3_EEC2Ev(ptr noundef nonnull align 8 dereferenceable(24) %0) unnamed_addr #1 comdat align 2 {
  %2 = alloca ptr, align 8
  store ptr %0, ptr %2, align 8
  %3 = load ptr, ptr %2, align 8
  call void @_ZNSt12_Vector_baseIN4LIEF5MachO17DyldChainedFixups25chained_starts_in_segmentESaIS3_EEC2Ev(ptr noundef nonnull align 8 dereferenceable(24) %3) #16
  ret void
}

; Function Attrs: mustprogress nounwind uwtable
define linkonce_odr hidden void @_ZN3tcb4spanIhLm18446744073709551615EEC2ILm18446744073709551615ETnNSt9enable_ifIXooeqT_L_ZNS_14dynamic_extentEEleT_Li0EEiE4typeELi0EEEv(ptr noundef nonnull align 8 dereferenceable(16) %0) unnamed_addr #1 comdat align 2 {
  %2 = alloca ptr, align 8
  store ptr %0, ptr %2, align 8
  %3 = load ptr, ptr %2, align 8
  %4 = getelementptr inbounds %"class.tcb::span", ptr %3, i32 0, i32 0
  call void @llvm.memset.p0.i64(ptr align 8 %4, i8 0, i64 16, i1 false)
  call void @_ZN3tcb6detail12span_storageIhLm18446744073709551615EEC2Ev(ptr noundef nonnull align 8 dereferenceable(16) %4) #16
  ret void
}

; Function Attrs: mustprogress uwtable
define void @_ZN4LIEF5MachO17DyldChainedFixupsC2ERKS1_(ptr noundef nonnull align 8 dereferenceable(184) %0, ptr noundef nonnull align 8 dereferenceable(184) %1) unnamed_addr #3 align 2 {
  %3 = alloca ptr, align 8
  %4 = alloca ptr, align 8
  store ptr %0, ptr %3, align 8
  store ptr %1, ptr %4, align 8
  %5 = load ptr, ptr %3, align 8
  %6 = load ptr, ptr %4, align 8
  call void @_ZN4LIEF5MachO11LoadCommandC2ERKS1_(ptr noundef nonnull align 8 dereferenceable(56) %5, ptr noundef nonnull align 8 dereferenceable(56) %6)
  store ptr getelementptr inbounds ({ [9 x ptr] }, ptr @_ZTVN4LIEF5MachO17DyldChainedFixupsE, i32 0, i32 0, i32 2), ptr %5, align 8
  %7 = getelementptr inbounds %"class.LIEF::MachO::DyldChainedFixups", ptr %5, i32 0, i32 1
  %8 = load ptr, ptr %4, align 8
  %9 = getelementptr inbounds %"class.LIEF::MachO::DyldChainedFixups", ptr %8, i32 0, i32 1
  %10 = load i32, ptr %9, align 8
  store i32 %10, ptr %7, align 8
  %11 = getelementptr inbounds %"class.LIEF::MachO::DyldChainedFixups", ptr %5, i32 0, i32 2
  %12 = load ptr, ptr %4, align 8
  %13 = getelementptr inbounds %"class.LIEF::MachO::DyldChainedFixups", ptr %12, i32 0, i32 2
  %14 = load i32, ptr %13, align 4
  store i32 %14, ptr %11, align 4
  %15 = getelementptr inbounds %"class.LIEF::MachO::DyldChainedFixups", ptr %5, i32 0, i32 3
  call void @_ZN3tcb4spanIhLm18446744073709551615EEC2ILm18446744073709551615ETnNSt9enable_ifIXooeqT_L_ZNS_14dynamic_extentEEleT_Li0EEiE4typeELi0EEEv(ptr noundef nonnull align 8 dereferenceable(16) %15) #16
  %16 = getelementptr inbounds %"class.LIEF::MachO::DyldChainedFixups", ptr %5, i32 0, i32 4
  store i32 0, ptr %16, align 8
  %17 = getelementptr inbounds %"class.LIEF::MachO::DyldChainedFixups", ptr %5, i32 0, i32 5
  store i32 0, ptr %17, align 4
  %18 = getelementptr inbounds %"class.LIEF::MachO::DyldChainedFixups", ptr %5, i32 0, i32 6
  store i32 0, ptr %18, align 8
  %19 = getelementptr inbounds %"class.LIEF::MachO::DyldChainedFixups", ptr %5, i32 0, i32 7
  store i32 0, ptr %19, align 4
  %20 = getelementptr inbounds %"class.LIEF::MachO::DyldChainedFixups", ptr %5, i32 0, i32 8
  store i32 0, ptr %20, align 8
  %21 = getelementptr inbounds %"class.LIEF::MachO::DyldChainedFixups", ptr %5, i32 0, i32 9
  store i32 0, ptr %21, align 4
  %22 = getelementptr inbounds %"class.LIEF::MachO::DyldChainedFixups", ptr %5, i32 0, i32 10
  store i32 1, ptr %22, align 8
  %23 = getelementptr inbounds %"class.LIEF::MachO::DyldChainedFixups", ptr %5, i32 0, i32 11
  call void @_ZNSt6vectorIN4LIEF5MachO17DyldChainedFixups25chained_starts_in_segmentESaIS3_EEC2Ev(ptr noundef nonnull align 8 dereferenceable(24) %23) #16
  %24 = getelementptr inbounds %"class.LIEF::MachO::DyldChainedFixups", ptr %5, i32 0, i32 12
  call void @_ZNSt6vectorISt10unique_ptrIN4LIEF5MachO22ChainedBindingInfoListESt14default_deleteIS3_EESaIS6_EEC2Ev(ptr noundef nonnull align 8 dereferenceable(24) %24) #16
  %25 = getelementptr inbounds %"class.LIEF::MachO::DyldChainedFixups", ptr %5, i32 0, i32 13
  call void @_ZNSt6vectorISt10unique_ptrIN4LIEF5MachO18ChainedBindingInfoESt14default_deleteIS3_EESaIS6_EEC2Ev(ptr noundef nonnull align 8 dereferenceable(24) %25) #16
  ret void
}