; Function Attrs: mustprogress uwtable
define void @_ZN4LIEF5MachO17DyldChainedFixupsC2ERKS1_(ptr noundef nonnull align 8 dereferenceable(184) %0, ptr noundef nonnull align 8 dereferenceable(184) %1) unnamed_addr #3 align 2 {
  tail call void @_ZN4LIEF5MachO11LoadCommandC2ERKS1_(ptr noundef nonnull align 8 dereferenceable(56) %0, ptr noundef nonnull align 8 dereferenceable(56) %1)
  store ptr getelementptr inbounds ({ [9 x ptr] }, ptr @_ZTVN4LIEF5MachO17DyldChainedFixupsE, i64 0, i32 0, i64 2), ptr %0, align 8
  %3 = getelementptr inbounds i8, ptr %0, i64 56
  %4 = getelementptr inbounds i8, ptr %1, i64 56
  %5 = load i32, ptr %4, align 8
  store i32 %5, ptr %3, align 8
  %6 = getelementptr inbounds i8, ptr %0, i64 60
  %7 = getelementptr inbounds i8, ptr %1, i64 60
  %8 = load i32, ptr %7, align 4
  store i32 %8, ptr %6, align 4
  %9 = getelementptr inbounds i8, ptr %0, i64 64
  %10 = getelementptr inbounds i8, ptr %0, i64 104
  tail call void @llvm.memset.p0.i64(ptr noundef nonnull align 8 dereferenceable(40) %9, i8 0, i64 40, i1 false)
  store i32 1, ptr %10, align 8
  %11 = getelementptr inbounds i8, ptr %0, i64 112
  tail call void @llvm.memset.p0.i64(ptr noundef nonnull align 8 dereferenceable(72) %11, i8 0, i64 72, i1 false)
  ret void
}